ccopy_reg
_reconstructor
p1
(cxmppd.modules.db_fake
DictWatch
p2
c__builtin__
dict
p3
(dp4
S'127.0.0.1'
p5
g1
(g2
g3
(dp6
S''
g1
(g2
g3
(dp7
S'name'
p8
S''
sS'groups'
p9
g1
(g2
g3
(dtRp10
sS'roster'
p11
g1
(g2
g3
(dtRp12
sS'anon_allow'
p13
S'yes'
p14
sS'password'
p15
S''
sS'storage'
p16
g1
(g2
g3
(dtRp17
stRp18
sVagentf
p19
g1
(g2
g3
(dp20
g8
VagentF
p21
sg9
g1
(g2
g3
(dtRp22
sg11
g1
(g2
g3
(dtRp23
sg13
g14
sg15
Vsecret
p24
sg16
g1
(g2
g3
(dtRp25
stRp26
sVaagent
p27
g1
(g2
g3
(dp28
g8
VAAgent
p29
sg9
g1
(g2
g3
(dtRp30
sg11
g1
(g2
g3
(dtRp31
sg13
g14
sg15
Vsecret
p32
sg16
g1
(g2
g3
(dtRp33
stRp34
sVpsagent
p35
g1
(g2
g3
(dp36
g8
VPSAgent
p37
sg9
g1
(g2
g3
(dtRp38
sg11
g1
(g2
g3
(dtRp39
sg13
g14
sg15
Vsecret
p40
sg16
g1
(g2
g3
(dtRp41
stRp42
sS'df'
p43
g1
(g2
g3
(dp44
S'name'
p45
S'DF'
p46
sS'groups'
p47
g1
(g2
g3
(dtRp48
sS'roster'
p49
g1
(g2
g3
(dtRp50
sS'anon_allow'
p51
S'yes'
p52
sS'password'
p53
S'TadfdlyV'
p54
sS'storage'
p55
g1
(g2
g3
(dtRp56
stRp57
sVfagent
p58
g1
(g2
g3
(dp59
g8
Vfagent
p60
sg9
g1
(g2
g3
(dtRp61
sg11
g1
(g2
g3
(dp62
Vams.127.0.0.1
p63
(dp64
S'state'
p65
S''
sS'subscription'
p66
S'to'
p67
sstRp68
sg13
g14
sg15
Vsecret
p69
sg16
g1
(g2
g3
(dtRp70
stRp71
sVanalyse
p72
g1
(g2
g3
(dp73
g8
Vanalyse
p74
sg9
g1
(g2
g3
(dtRp75
sg11
g1
(g2
g3
(dp76
Vams.127.0.0.1
p77
(dp78
g65
S''
sg66
g67
sstRp79
sg13
g14
sg15
Vsecret
p80
sg16
g1
(g2
g3
(dtRp81
stRp82
sVagent
p83
g1
(g2
g3
(dp84
S'name'
p85
Vagent
p86
sS'groups'
p87
g1
(g2
g3
(dtRp88
sS'roster'
p89
g1
(g2
g3
(dp90
Vams.127.0.0.1
p91
(dp92
S'state'
p93
S''
sS'subscription'
p94
S'to'
p95
sstRp96
sS'anon_allow'
p97
S'yes'
p98
sS'password'
p99
Vsecret
p100
sS'storage'
p101
g1
(g2
g3
(dtRp102
stRp103
sVas
p104
g1
(g2
g3
(dp105
S'name'
p106
Vas
p107
sS'groups'
p108
g1
(g2
g3
(dtRp109
sS'roster'
p110
g1
(g2
g3
(dp111
Vams.127.0.0.1
p112
(dp113
S'state'
p114
S''
sS'subscription'
p115
S'to'
p116
sstRp117
sS'anon_allow'
p118
S'yes'
p119
sS'password'
p120
Vsecret
p121
sS'storage'
p122
g1
(g2
g3
(dtRp123
stRp124
sS'ams'
p125
g1
(g2
g3
(dp126
g45
S'AMS'
p127
sg47
g1
(g2
g3
(dtRp128
sg49
g1
(g2
g3
(dp129
S'fagent@127.0.0.1'
p130
(dp131
S'state'
p132
S''
sS'subscription'
p133
S'from'
p134
ssS'agent@127.0.0.1'
p135
(dp136
g132
S''
sg133
g134
ssS'anlizeagent@127.0.0.1'
p137
(dp138
g132
S''
sg133
g134
sstRp139
sg51
g52
sg53
S'yuOTYaFW'
p140
sg55
g1
(g2
g3
(dtRp141
stRp142
sVanalyser
p143
g1
(g2
g3
(dp144
g8
Vanalyser
p145
sg9
g1
(g2
g3
(dtRp146
sg11
g1
(g2
g3
(dp147
Vams.127.0.0.1
p148
(dp149
g65
S''
sg66
g67
sstRp150
sg13
g14
sg15
Vsmile
p151
sg16
g1
(g2
g3
(dtRp152
stRp153
sS'acc'
p154
g1
(g2
g3
(dp155
g45
S'ACC'
p156
sg47
g1
(g2
g3
(dtRp157
sg49
g1
(g2
g3
(dtRp158
sg51
g52
sg53
S'MwUXejtk'
p159
sg55
g1
(g2
g3
(dtRp160
stRp161
sVaaa
p162
g1
(g2
g3
(dp163
g8
Vaaa
p164
sg9
g1
(g2
g3
(dtRp165
sg11
g1
(g2
g3
(dp166
Vams.127.0.0.1
p167
(dp168
g65
S''
sg66
g67
sstRp169
sg13
g14
sg15
Vsecret
p170
sg16
g1
(g2
g3
(dtRp171
stRp172
sVanlizeagent
p173
g1
(g2
g3
(dp174
g8
VanlizeAgent
p175
sg9
g1
(g2
g3
(dtRp176
sg11
g1
(g2
g3
(dp177
Vams.127.0.0.1
p178
(dp179
g65
S''
sg66
g67
sstRp180
sg13
g14
sg15
Vsecret
p181
sg16
g1
(g2
g3
(dtRp182
stRp183
sVreceiver
p184
g1
(g2
g3
(dp185
g8
Vreceiver
p186
sg9
g1
(g2
g3
(dtRp187
sg11
g1
(g2
g3
(dp188
Vams.127.0.0.1
p189
(dp190
g65
S''
sg66
g67
sstRp191
sg13
g14
sg15
Vsecret
p192
sg16
g1
(g2
g3
(dtRp193
stRp194
sVpsaagent
p195
g1
(g2
g3
(dp196
g8
VPSAagent
p197
sg9
g1
(g2
g3
(dtRp198
sg11
g1
(g2
g3
(dtRp199
sg13
g14
sg15
Vsecret
p200
sg16
g1
(g2
g3
(dtRp201
stRp202
sVfinder
p203
g1
(g2
g3
(dp204
g8
Vfinder
p205
sg9
g1
(g2
g3
(dtRp206
sg11
g1
(g2
g3
(dp207
Vams.127.0.0.1
p208
(dp209
g65
S''
sg66
g67
sstRp210
sg13
g14
sg15
Vsource
p211
sg16
g1
(g2
g3
(dtRp212
stRp213
sS'__ir__'
p214
(dp215
g51
g52
sg53
S'test'
p216
sg55
(dp217
S'karma'
p218
(dp219
S'down'
p220
I307200
sS'tot_up'
p221
I0
sS'tot_down'
p222
I0
sS'up'
p223
I307200307200307200
sS'last_time'
p224
F0
sssg47
(dp225
sg49
(dp226
sstRp227
stRp228
.