ccopy_reg
_reconstructor
p1
(cxmppd.modules.db_fake
DictWatch
p2
c__builtin__
dict
p3
(dp4
S'127.0.0.1'
p5
g1
(g2
g3
(dp6
S'acc'
p7
g1
(g2
g3
(dp8
S'name'
p9
S'ACC'
p10
sS'groups'
p11
g1
(g2
g3
(dtRp12
sS'roster'
p13
g1
(g2
g3
(dtRp14
sS'anon_allow'
p15
S'yes'
p16
sS'password'
p17
S'wSkILmvs'
p18
sS'storage'
p19
g1
(g2
g3
(dtRp20
stRp21
sVas
p22
g1
(g2
g3
(dp23
g9
Vas
p24
sg11
g1
(g2
g3
(dtRp25
sg13
g1
(g2
g3
(dp26
Vams.127.0.0.1
p27
(dp28
S'state'
p29
S''
sS'subscription'
p30
S'to'
p31
sstRp32
sg15
g16
sg17
Vsecret
p33
sg19
g1
(g2
g3
(dtRp34
stRp35
sS'df'
p36
g1
(g2
g3
(dp37
g9
S'DF'
p38
sg11
g1
(g2
g3
(dtRp39
sg13
g1
(g2
g3
(dtRp40
sg15
g16
sg17
S'ECMXGfRP'
p41
sg19
g1
(g2
g3
(dtRp42
stRp43
sS'ams'
p44
g1
(g2
g3
(dp45
g9
S'AMS'
p46
sg11
g1
(g2
g3
(dtRp47
sg13
g1
(g2
g3
(dp48
S'agent@127.0.0.1'
p49
(dp50
g29
S''
sg30
S'from'
p51
ssS'as@127.0.0.1'
p52
(dp53
g29
S''
sg30
g51
sstRp54
sg15
g16
sg17
S'bGPnpxIr'
p55
sg19
g1
(g2
g3
(dtRp56
stRp57
sVagent
p58
g1
(g2
g3
(dp59
S'name'
p60
Vagent
p61
sS'groups'
p62
g1
(g2
g3
(dtRp63
sS'roster'
p64
g1
(g2
g3
(dp65
Vams.127.0.0.1
p66
(dp67
S'state'
p68
S''
sS'subscription'
p69
S'to'
p70
sstRp71
sS'anon_allow'
p72
S'yes'
p73
sS'password'
p74
Vsecret
p75
sS'storage'
p76
g1
(g2
g3
(dtRp77
stRp78
sS'__ir__'
p79
(dp80
g15
g16
sg17
S'test'
p81
sg19
(dp82
S'karma'
p83
(dp84
S'down'
p85
I307200
sS'tot_up'
p86
I0
sS'tot_down'
p87
I0
sS'up'
p88
L307200307200307200L
sS'last_time'
p89
F0
sssg11
(dp90
sg13
(dp91
sstRp92
stRp93
.